target datalayout = "e-m:e-p270:32:32-p271:32:32-p272:64:64-i64:64-i128:128-f80:128-n8:16:32:64-S128"
target triple = "x86_64-pc-linux-gnu"

%struct.H5F_shared_t = type { ptr, ptr, ptr, i8, i32, i32, %struct.H5F_mtab_t, ptr, i8, i8, i64, i32, i32, i64, i64, ptr, ptr, %struct.H5AC_cache_config_t, %struct.H5AC_cache_image_config_t, i8, i8, ptr, i64, i32, i8, i64, i64, double, i64, i64, i64, i32, i32, i32, i8, i32, ptr, ptr, ptr, ptr, i8, i8, i8, i64, ptr, ptr, i32, i64, i8, i32, i8, i64, i8, [13 x i32], [13 x i64], [13 x ptr], i8, i64, i64, [7 x i32], [7 x i32], %struct.H5F_blk_aggr_t, %struct.H5F_blk_aggr_t, i64, i64, %struct.H5F_meta_accum_t, i32, i32, [30 x ptr], %struct.H5F_object_flush_t, i8, ptr }
%struct.H5F_mtab_t = type { i32, i32, ptr }
%struct.H5AC_cache_config_t = type { i32, i8, i8, i8, [1025 x i8], i8, i8, i64, double, i64, i64, i64, i32, double, double, i8, i64, i32, double, double, i32, double, double, i8, i64, i32, i8, double, i64, i32 }
%struct.H5AC_cache_image_config_t = type { i32, i8, i8, i32 }
%struct.H5F_blk_aggr_t = type { i64, i64, i64, i64, i64 }
%struct.H5F_meta_accum_t = type { ptr, i64, i64, i64, i64, i64, i8 }
%struct.H5F_object_flush_t = type { ptr, ptr }
%struct.H5F_t = type { ptr, ptr, ptr, ptr, i32, ptr, i8, i8, ptr, i32 }
%struct.H5VL_file_cont_info_t = type { i32, i64, i64, i64 }

@H5F_init_g = external global i8, align 1
@H5_libterm_g = external global i8, align 1
@.str = private unnamed_addr constant [102 x i8] c"generated/home/dtcxzyw/WorkSpace/Projects/compilers/llvm-opt-benchmark/bench/hdf5/hdf5/src/H5Fquery.c\00", align 1
@H5E_FILE_g = external global i64, align 8
@__func__.H5F__get_cont_info = private unnamed_addr constant [19 x i8] c"H5F__get_cont_info\00", align 1
@H5E_VERSION_g = external global i64, align 8
@.str.5 = private unnamed_addr constant [31 x i8] c"wrong container info version #\00", align 1

; Function Attrs: nounwind uwtable
define i32 @H5F__get_cont_info(ptr noundef %0, ptr noundef %1) #0 {
  %3 = alloca ptr, align 8
  %4 = alloca ptr, align 8
  %5 = alloca i32, align 4
  %6 = alloca i8, align 1
  store ptr %0, ptr %3, align 8, !tbaa !36
  store ptr %1, ptr %4, align 8, !tbaa !106
  call void @llvm.lifetime.start.p0(i64 4, ptr %5) #4
  store i32 0, ptr %5, align 4, !tbaa !72
  call void @llvm.lifetime.start.p0(i64 1, ptr %6) #4
  store i8 0, ptr %6, align 1, !tbaa !8
  %7 = load i8, ptr @H5F_init_g, align 1, !tbaa !8, !range !10, !noundef !11
  %8 = trunc i8 %7 to i1
  br i1 %8, label %13, label %9

9:                                                ; preds = %2
  %10 = load i8, ptr @H5_libterm_g, align 1, !tbaa !8, !range !10, !noundef !11
  %11 = trunc i8 %10 to i1
  %12 = xor i1 %11, true
  br label %13

13:                                               ; preds = %9, %2
  %14 = phi i1 [ true, %2 ], [ %12, %9 ]
  %15 = xor i1 %14, true
  %16 = xor i1 %15, true
  %17 = zext i1 %16 to i32
  %18 = sext i32 %17 to i64
  %19 = call i64 @llvm.expect.i64(i64 %18, i64 1)
  %20 = icmp ne i64 %19, 0
  br i1 %20, label %21, label %66

21:                                               ; preds = %13
  %22 = load ptr, ptr %4, align 8, !tbaa !106
  %23 = getelementptr inbounds nuw %struct.H5VL_file_cont_info_t, ptr %22, i32 0, i32 0
  %24 = load i32, ptr %23, align 8, !tbaa !108
  %25 = icmp ne i32 %24, 1
  br i1 %25, label %26, label %45

26:                                               ; preds = %21
  br label %27

27:                                               ; preds = %26
  br label %28

28:                                               ; preds = %27
  br label %29

29:                                               ; preds = %28
  %30 = load i64, ptr @H5E_FILE_g, align 8, !tbaa !90
  %31 = load i64, ptr @H5E_VERSION_g, align 8, !tbaa !90
  %32 = call i32 (ptr, ptr, i32, i64, i64, ptr, ...) @H5E_printf_stack(ptr noundef @.str, ptr noundef @__func__.H5F__get_cont_info, i32 noundef 1325, i64 noundef %30, i64 noundef %31, ptr noundef @.str.5)
  br label %33

33:                                               ; preds = %29
  br label %34

34:                                               ; preds = %33
  store i8 1, ptr %6, align 1, !tbaa !8
  %35 = load i8, ptr %6, align 1, !tbaa !8, !range !10, !noundef !11
  %36 = trunc i8 %35 to i1
  %37 = zext i1 %36 to i8
  store i8 %37, ptr %6, align 1, !tbaa !8
  br label %38

38:                                               ; preds = %34
  br label %39

39:                                               ; preds = %38
  br label %40

40:                                               ; preds = %39
  store i32 -1, ptr %5, align 4, !tbaa !72
  br label %65

41:                                               ; No predecessors!
  br label %42

42:                                               ; preds = %41
  br label %43

43:                                               ; preds = %42
  br label %44

44:                                               ; preds = %43
  br label %45

45:                                               ; preds = %44, %21
  %46 = load ptr, ptr %4, align 8, !tbaa !106
  %47 = getelementptr inbounds nuw %struct.H5VL_file_cont_info_t, ptr %46, i32 0, i32 1
  store i64 0, ptr %47, align 8, !tbaa !110
  %48 = load ptr, ptr %3, align 8, !tbaa !36
  %49 = getelementptr inbounds nuw %struct.H5F_t, ptr %48, i32 0, i32 2
  %50 = load ptr, ptr %49, align 8, !tbaa !38
  %51 = getelementptr inbounds nuw %struct.H5F_shared_t, ptr %50, i32 0, i32 8
  %52 = load i8, ptr %51, align 8, !tbaa !52
  %53 = zext i8 %52 to i64
  %54 = load ptr, ptr %4, align 8, !tbaa !106
  %55 = getelementptr inbounds nuw %struct.H5VL_file_cont_info_t, ptr %54, i32 0, i32 2
  store i64 %53, ptr %55, align 8, !tbaa !111
  %56 = load ptr, ptr %3, align 8, !tbaa !36
  %57 = getelementptr inbounds nuw %struct.H5F_t, ptr %56, i32 0, i32 2
  %58 = load ptr, ptr %57, align 8, !tbaa !38
  %59 = getelementptr inbounds nuw %struct.H5F_shared_t, ptr %58, i32 0, i32 8
  %60 = load i8, ptr %59, align 8, !tbaa !52
  %61 = zext i8 %60 to i64
  %62 = add i64 %61, 4
  %63 = load ptr, ptr %4, align 8, !tbaa !106
  %64 = getelementptr inbounds nuw %struct.H5VL_file_cont_info_t, ptr %63, i32 0, i32 3
  store i64 %62, ptr %64, align 8, !tbaa !112
  br label %65

65:                                               ; preds = %45, %40
  br label %66

66:                                               ; preds = %65, %13
  %67 = load i32, ptr %5, align 4, !tbaa !72
  call void @llvm.lifetime.end.p0(i64 1, ptr %6) #4
  call void @llvm.lifetime.end.p0(i64 4, ptr %5) #4
  ret i32 %67
}