; Function Attrs: nounwind uwtable
define range(i32 -1, 1) i32 @H5F__get_cont_info(ptr noundef readonly captures(none) %0, ptr noundef captures(none) %1) local_unnamed_addr #2 {
  %3 = load i8, ptr @H5F_init_g, align 1, !tbaa !84, !range !43, !noundef !44
  %4 = trunc nuw i8 %3 to i1
  %5 = load i8, ptr @H5_libterm_g, align 1, !range !43
  %6 = trunc nuw i8 %5 to i1
  %7 = xor i1 %6, true
  %8 = select i1 %4, i1 true, i1 %7
  br i1 %8, label %9, label %25, !prof !85

9:                                                ; preds = %2
  %10 = load i32, ptr %1, align 8, !tbaa !99
  %.not = icmp eq i32 %10, 1
  br i1 %.not, label %15, label %11

11:                                               ; preds = %9
  %12 = load i64, ptr @H5E_FILE_g, align 8, !tbaa !86
  %13 = load i64, ptr @H5E_VERSION_g, align 8, !tbaa !86
  %14 = tail call i32 (ptr, ptr, i32, i64, i64, ptr, ...) @H5E_printf_stack(ptr noundef nonnull @.str, ptr noundef nonnull @__func__.H5F__get_cont_info, i32 noundef 1325, i64 noundef %12, i64 noundef %13, ptr noundef nonnull @.str.5) #5
  br label %25

15:                                               ; preds = %9
  %16 = getelementptr inbounds nuw i8, ptr %1, i64 8
  store i64 0, ptr %16, align 8, !tbaa !101
  %17 = getelementptr inbounds nuw i8, ptr %0, i64 16
  %18 = load ptr, ptr %17, align 8, !tbaa !31
  %19 = getelementptr inbounds nuw i8, ptr %18, i64 64
  %20 = load i8, ptr %19, align 8, !tbaa !49
  %21 = zext i8 %20 to i64
  %22 = getelementptr inbounds nuw i8, ptr %1, i64 16
  store i64 %21, ptr %22, align 8, !tbaa !102
  %23 = add nuw nsw i64 %21, 4
  %24 = getelementptr inbounds nuw i8, ptr %1, i64 24
  store i64 %23, ptr %24, align 8, !tbaa !103
  br label %25

25:                                               ; preds = %11, %15, %2
  %.0 = phi i32 [ -1, %11 ], [ 0, %15 ], [ 0, %2 ]
  ret i32 %.0
}